target datalayout = "e-m:e-p270:32:32-p271:32:32-p272:64:64-i64:64-i128:128-f80:128-n8:16:32:64-S128"
target triple = "x86_64-unknown-linux-gnu"

%"class.absl::Mutex" = type { %"struct.std::atomic" }
%"struct.std::atomic" = type { %"struct.std::__atomic_base" }
%"struct.std::__atomic_base" = type { i64 }

; Function Attrs: mustprogress nounwind uwtable
define linkonce_odr dso_local void @_ZNSt13__atomic_baseIlEC2El(ptr noundef nonnull align 8 dereferenceable(8) %this, i64 noundef %__i) unnamed_addr #7 comdat align 2 {
entry:
  %this.addr = alloca ptr, align 8
  %__i.addr = alloca i64, align 8
  store ptr %this, ptr %this.addr, align 8
  store i64 %__i, ptr %__i.addr, align 8
  %this1 = load ptr, ptr %this.addr, align 8
  %_M_i = getelementptr inbounds %"struct.std::__atomic_base", ptr %this1, i32 0, i32 0
  %0 = load i64, ptr %__i.addr, align 8
  store i64 %0, ptr %_M_i, align 8
  ret void
}

; Function Attrs: mustprogress nounwind uwtable
define linkonce_odr dso_local void @_ZNSt6atomicIlEC2El(ptr noundef nonnull align 8 dereferenceable(8) %this, i64 noundef %__i) unnamed_addr #7 comdat align 2 {
entry:
  %this.addr = alloca ptr, align 8
  %__i.addr = alloca i64, align 8
  store ptr %this, ptr %this.addr, align 8
  store i64 %__i, ptr %__i.addr, align 8
  %this1 = load ptr, ptr %this.addr, align 8
  %0 = load i64, ptr %__i.addr, align 8
  call void @_ZNSt13__atomic_baseIlEC2El(ptr noundef nonnull align 8 dereferenceable(8) %this1, i64 noundef %0) #3
  ret void
}

; Function Attrs: noreturn nounwind uwtable
define linkonce_odr hidden void @__clang_call_terminate(ptr noundef %0) #9 comdat {
  %2 = call ptr @__cxa_begin_catch(ptr %0) #3
  call void @_ZSt9terminatev() #27
  unreachable
}

; Function Attrs: mustprogress nounwind uwtable
define linkonce_odr dso_local void @_ZN4absl5MutexC2Ev(ptr noundef nonnull align 8 dereferenceable(8) %this) unnamed_addr #7 comdat align 2 {
entry:
  %this.addr = alloca ptr, align 8
  store ptr %this, ptr %this.addr, align 8
  %this1 = load ptr, ptr %this.addr, align 8
  %mu_ = getelementptr inbounds %"class.absl::Mutex", ptr %this1, i32 0, i32 0
  call void @_ZNSt6atomicIlEC2El(ptr noundef nonnull align 8 dereferenceable(8) %mu_, i64 noundef 0) #3
  ret void
}

; Function Attrs: mustprogress uwtable
define internal void @_ZN12_GLOBAL__N_127Mutex_DeadlockDetector_Test8TestBodyEv(ptr noundef nonnull align 8 dereferenceable(16) %this) unnamed_addr #4 align 2 personality ptr @__gxx_personality_v0 {
entry:
  %this.addr.i65 = alloca ptr, align 8
  %this.addr.i63 = alloca ptr, align 8
  %this.addr.i61 = alloca ptr, align 8
  %this.addr.i59 = alloca ptr, align 8
  %this.addr.i57 = alloca ptr, align 8
  %this.addr.i55 = alloca ptr, align 8
  %this.addr.i53 = alloca ptr, align 8
  %this.addr.i51 = alloca ptr, align 8
  %this.addr.i47 = alloca ptr, align 8
  %this.addr.i43 = alloca ptr, align 8
  %this.addr.i39 = alloca ptr, align 8
  %this.addr.i35 = alloca ptr, align 8
  %this.addr.i31 = alloca ptr, align 8
  %this.addr.i27 = alloca ptr, align 8
  %this.addr.i23 = alloca ptr, align 8
  %this.addr.i = alloca ptr, align 8
  %this.addr = alloca ptr, align 8
  %m1 = alloca %"class.absl::Mutex", align 8
  %m2 = alloca %"class.absl::Mutex", align 8
  %exn.slot = alloca ptr, align 8
  %ehselector.slot = alloca i32, align 4
  %m3 = alloca %"class.absl::Mutex", align 8
  %m4 = alloca %"class.absl::Mutex", align 8
  store ptr %this, ptr %this.addr, align 8
  call void @_ZN4absl29SetMutexDeadlockDetectionModeENS_15OnDeadlockCycleE(i32 noundef 2)
  call void @_ZN4absl5MutexC2Ev(ptr noundef nonnull align 8 dereferenceable(8) %m1)
  invoke void @_ZN4absl5MutexC2Ev(ptr noundef nonnull align 8 dereferenceable(8) %m2)
          to label %invoke.cont unwind label %lpad

invoke.cont:                                      ; preds = %entry
  invoke void @_ZN4absl5MutexC2Ev(ptr noundef nonnull align 8 dereferenceable(8) %m3)
          to label %invoke.cont3 unwind label %lpad2

invoke.cont3:                                     ; preds = %invoke.cont
  invoke void @_ZN4absl5MutexC2Ev(ptr noundef nonnull align 8 dereferenceable(8) %m4)
          to label %invoke.cont5 unwind label %lpad4

invoke.cont5:                                     ; preds = %invoke.cont3
  invoke void @_ZN4absl5Mutex4LockEv(ptr noundef nonnull align 8 dereferenceable(8) %m1)
          to label %invoke.cont7 unwind label %lpad6

invoke.cont7:                                     ; preds = %invoke.cont5
  invoke void @_ZN4absl5Mutex4LockEv(ptr noundef nonnull align 8 dereferenceable(8) %m2)
          to label %invoke.cont8 unwind label %lpad6

invoke.cont8:                                     ; preds = %invoke.cont7
  invoke void @_ZN4absl5Mutex4LockEv(ptr noundef nonnull align 8 dereferenceable(8) %m3)
          to label %invoke.cont9 unwind label %lpad6

invoke.cont9:                                     ; preds = %invoke.cont8
  invoke void @_ZN4absl5Mutex6UnlockEv(ptr noundef nonnull align 8 dereferenceable(8) %m3)
          to label %invoke.cont10 unwind label %lpad6

invoke.cont10:                                    ; preds = %invoke.cont9
  invoke void @_ZN4absl5Mutex6UnlockEv(ptr noundef nonnull align 8 dereferenceable(8) %m2)
          to label %invoke.cont11 unwind label %lpad6

invoke.cont11:                                    ; preds = %invoke.cont10
  invoke void @_ZN4absl5Mutex18ForgetDeadlockInfoEv(ptr noundef nonnull align 8 dereferenceable(8) %m1)
          to label %invoke.cont12 unwind label %lpad6

invoke.cont12:                                    ; preds = %invoke.cont11
  invoke void @_ZN4absl5Mutex4LockEv(ptr noundef nonnull align 8 dereferenceable(8) %m2)
          to label %invoke.cont13 unwind label %lpad6

invoke.cont13:                                    ; preds = %invoke.cont12
  invoke void @_ZN4absl5Mutex4LockEv(ptr noundef nonnull align 8 dereferenceable(8) %m3)
          to label %invoke.cont14 unwind label %lpad6

invoke.cont14:                                    ; preds = %invoke.cont13
  invoke void @_ZN4absl5Mutex4LockEv(ptr noundef nonnull align 8 dereferenceable(8) %m4)
          to label %invoke.cont15 unwind label %lpad6

invoke.cont15:                                    ; preds = %invoke.cont14
  invoke void @_ZN4absl5Mutex6UnlockEv(ptr noundef nonnull align 8 dereferenceable(8) %m3)
          to label %invoke.cont16 unwind label %lpad6

invoke.cont16:                                    ; preds = %invoke.cont15
  invoke void @_ZN4absl5Mutex6UnlockEv(ptr noundef nonnull align 8 dereferenceable(8) %m2)
          to label %invoke.cont17 unwind label %lpad6

invoke.cont17:                                    ; preds = %invoke.cont16
  invoke void @_ZN4absl5Mutex6UnlockEv(ptr noundef nonnull align 8 dereferenceable(8) %m4)
          to label %invoke.cont18 unwind label %lpad6

invoke.cont18:                                    ; preds = %invoke.cont17
  invoke void @_ZN4absl5Mutex6UnlockEv(ptr noundef nonnull align 8 dereferenceable(8) %m1)
          to label %invoke.cont19 unwind label %lpad6

invoke.cont19:                                    ; preds = %invoke.cont18
  store ptr %m4, ptr %this.addr.i, align 8
  %this1.i = load ptr, ptr %this.addr.i, align 8
  store ptr %this1.i, ptr %this.addr.i65, align 8
  br label %_ZN4absl5MutexD2Ev.exit

terminate.lpad.i:                                 ; No predecessors!
  %0 = landingpad { ptr, i32 }
          catch ptr null
  %1 = extractvalue { ptr, i32 } %0, 0
  call void @__clang_call_terminate(ptr %1) #27
  unreachable

_ZN4absl5MutexD2Ev.exit:                          ; preds = %invoke.cont19
  store ptr %m3, ptr %this.addr.i27, align 8
  %this1.i28 = load ptr, ptr %this.addr.i27, align 8
  store ptr %this1.i28, ptr %this.addr.i61, align 8
  br label %_ZN4absl5MutexD2Ev.exit30

terminate.lpad.i29:                               ; No predecessors!
  %2 = landingpad { ptr, i32 }
          catch ptr null
  %3 = extractvalue { ptr, i32 } %2, 0
  call void @__clang_call_terminate(ptr %3) #27
  unreachable

_ZN4absl5MutexD2Ev.exit30:                        ; preds = %_ZN4absl5MutexD2Ev.exit
  store ptr %m2, ptr %this.addr.i35, align 8
  %this1.i36 = load ptr, ptr %this.addr.i35, align 8
  store ptr %this1.i36, ptr %this.addr.i57, align 8
  br label %_ZN4absl5MutexD2Ev.exit38

terminate.lpad.i37:                               ; No predecessors!
  %4 = landingpad { ptr, i32 }
          catch ptr null
  %5 = extractvalue { ptr, i32 } %4, 0
  call void @__clang_call_terminate(ptr %5) #27
  unreachable

_ZN4absl5MutexD2Ev.exit38:                        ; preds = %_ZN4absl5MutexD2Ev.exit30
  store ptr %m1, ptr %this.addr.i43, align 8
  %this1.i44 = load ptr, ptr %this.addr.i43, align 8
  store ptr %this1.i44, ptr %this.addr.i53, align 8
  br label %_ZN4absl5MutexD2Ev.exit46

terminate.lpad.i45:                               ; No predecessors!
  %6 = landingpad { ptr, i32 }
          catch ptr null
  %7 = extractvalue { ptr, i32 } %6, 0
  call void @__clang_call_terminate(ptr %7) #27
  unreachable

_ZN4absl5MutexD2Ev.exit46:                        ; preds = %_ZN4absl5MutexD2Ev.exit38
  ret void

lpad:                                             ; preds = %entry
  %8 = landingpad { ptr, i32 }
          cleanup
  %9 = extractvalue { ptr, i32 } %8, 0
  store ptr %9, ptr %exn.slot, align 8
  %10 = extractvalue { ptr, i32 } %8, 1
  store i32 %10, ptr %ehselector.slot, align 4
  br label %ehcleanup21

lpad2:                                            ; preds = %invoke.cont
  %11 = landingpad { ptr, i32 }
          cleanup
  %12 = extractvalue { ptr, i32 } %11, 0
  store ptr %12, ptr %exn.slot, align 8
  %13 = extractvalue { ptr, i32 } %11, 1
  store i32 %13, ptr %ehselector.slot, align 4
  br label %ehcleanup20

lpad4:                                            ; preds = %invoke.cont3
  %14 = landingpad { ptr, i32 }
          cleanup
  %15 = extractvalue { ptr, i32 } %14, 0
  store ptr %15, ptr %exn.slot, align 8
  %16 = extractvalue { ptr, i32 } %14, 1
  store i32 %16, ptr %ehselector.slot, align 4
  br label %ehcleanup

lpad6:                                            ; preds = %invoke.cont18, %invoke.cont17, %invoke.cont16, %invoke.cont15, %invoke.cont14, %invoke.cont13, %invoke.cont12, %invoke.cont11, %invoke.cont10, %invoke.cont9, %invoke.cont8, %invoke.cont7, %invoke.cont5
  %17 = landingpad { ptr, i32 }
          cleanup
  %18 = extractvalue { ptr, i32 } %17, 0
  store ptr %18, ptr %exn.slot, align 8
  %19 = extractvalue { ptr, i32 } %17, 1
  store i32 %19, ptr %ehselector.slot, align 4
  store ptr %m4, ptr %this.addr.i23, align 8
  %this1.i24 = load ptr, ptr %this.addr.i23, align 8
  store ptr %this1.i24, ptr %this.addr.i63, align 8
  br label %_ZN4absl5MutexD2Ev.exit26

terminate.lpad.i25:                               ; No predecessors!
  %20 = landingpad { ptr, i32 }
          catch ptr null
  %21 = extractvalue { ptr, i32 } %20, 0
  call void @__clang_call_terminate(ptr %21) #27
  unreachable

_ZN4absl5MutexD2Ev.exit26:                        ; preds = %lpad6
  br label %ehcleanup

ehcleanup:                                        ; preds = %_ZN4absl5MutexD2Ev.exit26, %lpad4
  store ptr %m3, ptr %this.addr.i31, align 8
  %this1.i32 = load ptr, ptr %this.addr.i31, align 8
  store ptr %this1.i32, ptr %this.addr.i59, align 8
  br label %_ZN4absl5MutexD2Ev.exit34

terminate.lpad.i33:                               ; No predecessors!
  %22 = landingpad { ptr, i32 }
          catch ptr null
  %23 = extractvalue { ptr, i32 } %22, 0
  call void @__clang_call_terminate(ptr %23) #27
  unreachable

_ZN4absl5MutexD2Ev.exit34:                        ; preds = %ehcleanup
  br label %ehcleanup20

ehcleanup20:                                      ; preds = %_ZN4absl5MutexD2Ev.exit34, %lpad2
  store ptr %m2, ptr %this.addr.i39, align 8
  %this1.i40 = load ptr, ptr %this.addr.i39, align 8
  store ptr %this1.i40, ptr %this.addr.i55, align 8
  br label %_ZN4absl5MutexD2Ev.exit42

terminate.lpad.i41:                               ; No predecessors!
  %24 = landingpad { ptr, i32 }
          catch ptr null
  %25 = extractvalue { ptr, i32 } %24, 0
  call void @__clang_call_terminate(ptr %25) #27
  unreachable

_ZN4absl5MutexD2Ev.exit42:                        ; preds = %ehcleanup20
  br label %ehcleanup21

ehcleanup21:                                      ; preds = %_ZN4absl5MutexD2Ev.exit42, %lpad
  store ptr %m1, ptr %this.addr.i47, align 8
  %this1.i48 = load ptr, ptr %this.addr.i47, align 8
  store ptr %this1.i48, ptr %this.addr.i51, align 8
  br label %_ZN4absl5MutexD2Ev.exit50

terminate.lpad.i49:                               ; No predecessors!
  %26 = landingpad { ptr, i32 }
          catch ptr null
  %27 = extractvalue { ptr, i32 } %26, 0
  call void @__clang_call_terminate(ptr %27) #27
  unreachable

_ZN4absl5MutexD2Ev.exit50:                        ; preds = %ehcleanup21
  br label %eh.resume

eh.resume:                                        ; preds = %_ZN4absl5MutexD2Ev.exit50
  %exn = load ptr, ptr %exn.slot, align 8
  %sel = load i32, ptr %ehselector.slot, align 4
  %lpad.val = insertvalue { ptr, i32 } poison, ptr %exn, 0
  %lpad.val22 = insertvalue { ptr, i32 } %lpad.val, i32 %sel, 1
  resume { ptr, i32 } %lpad.val22
}