; Function Attrs: mustprogress uwtable
define internal void @_ZN12_GLOBAL__N_127Mutex_DeadlockDetector_Test8TestBodyEv(ptr nocapture nonnull readnone align 8 %this) unnamed_addr #3 align 2 personality ptr @__gxx_personality_v0 {
entry:
  %m1 = alloca %"class.absl::Mutex", align 8
  %m2 = alloca %"class.absl::Mutex", align 8
  %m3 = alloca %"class.absl::Mutex", align 8
  %m4 = alloca %"class.absl::Mutex", align 8
  tail call void @_ZN4absl29SetMutexDeadlockDetectionModeENS_15OnDeadlockCycleE(i32 noundef 2)
  store i64 0, ptr %m1, align 8
  store i64 0, ptr %m2, align 8
  store i64 0, ptr %m3, align 8
  store i64 0, ptr %m4, align 8
  call void @_ZN4absl5Mutex4LockEv(ptr noundef nonnull align 8 dereferenceable(8) %m1)
  call void @_ZN4absl5Mutex4LockEv(ptr noundef nonnull align 8 dereferenceable(8) %m2)
  call void @_ZN4absl5Mutex4LockEv(ptr noundef nonnull align 8 dereferenceable(8) %m3)
  call void @_ZN4absl5Mutex6UnlockEv(ptr noundef nonnull align 8 dereferenceable(8) %m3)
  call void @_ZN4absl5Mutex6UnlockEv(ptr noundef nonnull align 8 dereferenceable(8) %m2)
  call void @_ZN4absl5Mutex18ForgetDeadlockInfoEv(ptr noundef nonnull align 8 dereferenceable(8) %m1)
  call void @_ZN4absl5Mutex4LockEv(ptr noundef nonnull align 8 dereferenceable(8) %m2)
  call void @_ZN4absl5Mutex4LockEv(ptr noundef nonnull align 8 dereferenceable(8) %m3)
  call void @_ZN4absl5Mutex4LockEv(ptr noundef nonnull align 8 dereferenceable(8) %m4)
  call void @_ZN4absl5Mutex6UnlockEv(ptr noundef nonnull align 8 dereferenceable(8) %m3)
  call void @_ZN4absl5Mutex6UnlockEv(ptr noundef nonnull align 8 dereferenceable(8) %m2)
  call void @_ZN4absl5Mutex6UnlockEv(ptr noundef nonnull align 8 dereferenceable(8) %m4)
  call void @_ZN4absl5Mutex6UnlockEv(ptr noundef nonnull align 8 dereferenceable(8) %m1)
  ret void
}